
_GrapIDs:

;rfidsource.c,4 :: 		void GrapIDs(){ //Grap IDs from EEProm
;rfidsource.c,5 :: 		for(j=0;j<16;j++){
	CLRF        _j+0 
L_GrapIDs0:
	MOVLW       16
	SUBWF       _j+0, 0 
	BTFSC       STATUS+0, 0 
	GOTO        L_GrapIDs1
;rfidsource.c,6 :: 		for(i=0;i<10;i++){
	CLRF        _i+0 
L_GrapIDs3:
	MOVLW       10
	SUBWF       _i+0, 0 
	BTFSC       STATUS+0, 0 
	GOTO        L_GrapIDs4
;rfidsource.c,7 :: 		id[j][i]=EEPROM_Read((j*16)+i);
	MOVLW       14
	MOVWF       R0 
	MOVLW       0
	MOVWF       R1 
	MOVF        _j+0, 0 
	MOVWF       R4 
	MOVLW       0
	MOVWF       R5 
	CALL        _Mul_16x16_U+0, 0
	MOVLW       _id+0
	ADDWF       R0, 1 
	MOVLW       hi_addr(_id+0)
	ADDWFC      R1, 1 
	MOVF        _i+0, 0 
	ADDWF       R0, 0 
	MOVWF       FLOC__GrapIDs+0 
	MOVLW       0
	ADDWFC      R1, 0 
	MOVWF       FLOC__GrapIDs+1 
	MOVF        _j+0, 0 
	MOVWF       FARG_EEPROM_Read_address+0 
	RLCF        FARG_EEPROM_Read_address+0, 1 
	BCF         FARG_EEPROM_Read_address+0, 0 
	RLCF        FARG_EEPROM_Read_address+0, 1 
	BCF         FARG_EEPROM_Read_address+0, 0 
	RLCF        FARG_EEPROM_Read_address+0, 1 
	BCF         FARG_EEPROM_Read_address+0, 0 
	RLCF        FARG_EEPROM_Read_address+0, 1 
	BCF         FARG_EEPROM_Read_address+0, 0 
	MOVF        _i+0, 0 
	ADDWF       FARG_EEPROM_Read_address+0, 1 
	CALL        _EEPROM_Read+0, 0
	MOVFF       FLOC__GrapIDs+0, FSR1
	MOVFF       FLOC__GrapIDs+1, FSR1H
	MOVF        R0, 0 
	MOVWF       POSTINC1+0 
;rfidsource.c,8 :: 		delay_ms(10);
	MOVLW       26
	MOVWF       R12, 0
	MOVLW       248
	MOVWF       R13, 0
L_GrapIDs6:
	DECFSZ      R13, 1, 1
	BRA         L_GrapIDs6
	DECFSZ      R12, 1, 1
	BRA         L_GrapIDs6
	NOP
;rfidsource.c,6 :: 		for(i=0;i<10;i++){
	INCF        _i+0, 1 
;rfidsource.c,9 :: 		}
	GOTO        L_GrapIDs3
L_GrapIDs4:
;rfidsource.c,5 :: 		for(j=0;j<16;j++){
	INCF        _j+0, 1 
;rfidsource.c,10 :: 		}
	GOTO        L_GrapIDs0
L_GrapIDs1:
;rfidsource.c,11 :: 		}
L_end_GrapIDs:
	RETURN      0
; end of _GrapIDs

_addCard:

;rfidsource.c,15 :: 		char addCard(){
;rfidsource.c,16 :: 		cardExists=0;
	CLRF        _cardExists+0 
;rfidsource.c,17 :: 		RFIDEnable=1;
	BSF         RC0_bit+0, BitPos(RC0_bit+0) 
;rfidsource.c,18 :: 		for(;;){
L_addCard7:
;rfidsource.c,19 :: 		if (UART1_Data_Ready() == 1&&cardExists==0){
	CALL        _UART1_Data_Ready+0, 0
	MOVF        R0, 0 
	XORLW       1
	BTFSS       STATUS+0, 2 
	GOTO        L_addCard12
	MOVF        _cardExists+0, 0 
	XORLW       0
	BTFSS       STATUS+0, 2 
	GOTO        L_addCard12
L__addCard121:
;rfidsource.c,20 :: 		for(i=0;i<12;i++){
	CLRF        _i+0 
L_addCard13:
	MOVLW       12
	SUBWF       _i+0, 0 
	BTFSC       STATUS+0, 0 
	GOTO        L_addCard14
;rfidsource.c,21 :: 		for(;!UART1_Data_Ready(););
L_addCard16:
	CALL        _UART1_Data_Ready+0, 0
	MOVF        R0, 1 
	BTFSS       STATUS+0, 2 
	GOTO        L_addCard17
	GOTO        L_addCard16
L_addCard17:
;rfidsource.c,22 :: 		uart_rd[i]=UART1_Read();
	MOVLW       _uart_rd+0
	MOVWF       FLOC__addCard+0 
	MOVLW       hi_addr(_uart_rd+0)
	MOVWF       FLOC__addCard+1 
	MOVF        _i+0, 0 
	ADDWF       FLOC__addCard+0, 1 
	BTFSC       STATUS+0, 0 
	INCF        FLOC__addCard+1, 1 
	CALL        _UART1_Read+0, 0
	MOVFF       FLOC__addCard+0, FSR1
	MOVFF       FLOC__addCard+1, FSR1H
	MOVF        R0, 0 
	MOVWF       POSTINC1+0 
;rfidsource.c,20 :: 		for(i=0;i<12;i++){
	INCF        _i+0, 1 
;rfidsource.c,23 :: 		}
	GOTO        L_addCard13
L_addCard14:
;rfidsource.c,24 :: 		RFIDEnable=0;
	BCF         RC0_bit+0, BitPos(RC0_bit+0) 
;rfidsource.c,25 :: 		if(uart_rd[0]==0x0A&&uart_rd[11]==0x0D){
	MOVF        _uart_rd+0, 0 
	XORLW       10
	BTFSS       STATUS+0, 2 
	GOTO        L_addCard21
	MOVF        _uart_rd+11, 0 
	XORLW       13
	BTFSS       STATUS+0, 2 
	GOTO        L_addCard21
L__addCard120:
;rfidsource.c,26 :: 		for(i=0;i<16;i++){
	CLRF        _i+0 
L_addCard22:
	MOVLW       16
	SUBWF       _i+0, 0 
	BTFSC       STATUS+0, 0 
	GOTO        L_addCard23
;rfidsource.c,27 :: 		Exist1=strstr(uart_rd,id[i]);
	MOVLW       _uart_rd+0
	MOVWF       FARG_strstr_s1+0 
	MOVLW       hi_addr(_uart_rd+0)
	MOVWF       FARG_strstr_s1+1 
	MOVLW       14
	MOVWF       R0 
	MOVLW       0
	MOVWF       R1 
	MOVF        _i+0, 0 
	MOVWF       R4 
	MOVLW       0
	MOVWF       R5 
	CALL        _Mul_16x16_U+0, 0
	MOVLW       _id+0
	ADDWF       R0, 0 
	MOVWF       FARG_strstr_s2+0 
	MOVLW       hi_addr(_id+0)
	ADDWFC      R1, 0 
	MOVWF       FARG_strstr_s2+1 
	CALL        _strstr+0, 0
	MOVF        R0, 0 
	MOVWF       _Exist1+0 
;rfidsource.c,28 :: 		if(Exist1!=0){
	MOVF        R0, 0 
	XORLW       0
	BTFSC       STATUS+0, 2 
	GOTO        L_addCard25
;rfidsource.c,29 :: 		Lcd_Cmd(_LCD_CLEAR);
	MOVLW       1
	MOVWF       FARG_Lcd_Cmd_out_char+0 
	CALL        _Lcd_Cmd+0, 0
;rfidsource.c,30 :: 		Lcd_Out(1,2,"Already Exists");
	MOVLW       1
	MOVWF       FARG_Lcd_Out_row+0 
	MOVLW       2
	MOVWF       FARG_Lcd_Out_column+0 
	MOVLW       ?lstr1_Test+0
	MOVWF       FARG_Lcd_Out_text+0 
	MOVLW       hi_addr(?lstr1_Test+0)
	MOVWF       FARG_Lcd_Out_text+1 
	CALL        _Lcd_Out+0, 0
;rfidsource.c,31 :: 		cardExists=1;
	MOVLW       1
	MOVWF       _cardExists+0 
;rfidsource.c,32 :: 		return 0;
	CLRF        R0 
	GOTO        L_end_addCard
;rfidsource.c,33 :: 		}
L_addCard25:
;rfidsource.c,26 :: 		for(i=0;i<16;i++){
	INCF        _i+0, 1 
;rfidsource.c,34 :: 		}
	GOTO        L_addCard22
L_addCard23:
;rfidsource.c,35 :: 		if(cardExists==0){
	MOVF        _cardExists+0, 0 
	XORLW       0
	BTFSS       STATUS+0, 2 
	GOTO        L_addCard26
;rfidsource.c,36 :: 		for(i=0;i<=0xF0;i=i+16){
	CLRF        _i+0 
L_addCard27:
	MOVF        _i+0, 0 
	SUBLW       240
	BTFSS       STATUS+0, 0 
	GOTO        L_addCard28
;rfidsource.c,37 :: 		buffer=EEPROM_Read(i);
	MOVF        _i+0, 0 
	MOVWF       FARG_EEPROM_Read_address+0 
	CALL        _EEPROM_Read+0, 0
	MOVF        R0, 0 
	MOVWF       _buffer+0 
;rfidsource.c,38 :: 		if(buffer==0x9F){
	MOVF        R0, 0 
	XORLW       159
	BTFSS       STATUS+0, 2 
	GOTO        L_addCard30
;rfidsource.c,39 :: 		Row=i;
	MOVF        _i+0, 0 
	MOVWF       _Row+0 
;rfidsource.c,40 :: 		break;
	GOTO        L_addCard28
;rfidsource.c,41 :: 		}
L_addCard30:
;rfidsource.c,36 :: 		for(i=0;i<=0xF0;i=i+16){
	MOVLW       16
	ADDWF       _i+0, 1 
;rfidsource.c,42 :: 		}
	GOTO        L_addCard27
L_addCard28:
;rfidsource.c,43 :: 		for(i=1;i<11;i++){
	MOVLW       1
	MOVWF       _i+0 
L_addCard31:
	MOVLW       11
	SUBWF       _i+0, 0 
	BTFSC       STATUS+0, 0 
	GOTO        L_addCard32
;rfidsource.c,44 :: 		EEPROM_Write(Row+(i-1),uart_rd[i]);
	DECF        _i+0, 0 
	MOVWF       R0 
	MOVF        R0, 0 
	ADDWF       _Row+0, 0 
	MOVWF       FARG_EEPROM_Write_address+0 
	MOVLW       _uart_rd+0
	MOVWF       FSR0 
	MOVLW       hi_addr(_uart_rd+0)
	MOVWF       FSR0H 
	MOVF        _i+0, 0 
	ADDWF       FSR0, 1 
	BTFSC       STATUS+0, 0 
	INCF        FSR0H, 1 
	MOVF        POSTINC0+0, 0 
	MOVWF       FARG_EEPROM_Write_data_+0 
	CALL        _EEPROM_Write+0, 0
;rfidsource.c,45 :: 		id[Row/16][i-1]=uart_rd[i];
	MOVF        _Row+0, 0 
	MOVWF       R0 
	RRCF        R0, 1 
	BCF         R0, 7 
	RRCF        R0, 1 
	BCF         R0, 7 
	RRCF        R0, 1 
	BCF         R0, 7 
	RRCF        R0, 1 
	BCF         R0, 7 
	MOVLW       0
	MOVWF       R1 
	MOVLW       14
	MOVWF       R4 
	MOVLW       0
	MOVWF       R5 
	CALL        _Mul_16x16_U+0, 0
	MOVLW       _id+0
	ADDWF       R0, 0 
	MOVWF       R2 
	MOVLW       hi_addr(_id+0)
	ADDWFC      R1, 0 
	MOVWF       R3 
	DECF        _i+0, 0 
	MOVWF       R0 
	CLRF        R1 
	MOVLW       0
	SUBWFB      R1, 1 
	MOVF        R0, 0 
	ADDWF       R2, 0 
	MOVWF       FSR1 
	MOVF        R1, 0 
	ADDWFC      R3, 0 
	MOVWF       FSR1H 
	MOVLW       _uart_rd+0
	MOVWF       FSR0 
	MOVLW       hi_addr(_uart_rd+0)
	MOVWF       FSR0H 
	MOVF        _i+0, 0 
	ADDWF       FSR0, 1 
	BTFSC       STATUS+0, 0 
	INCF        FSR0H, 1 
	MOVF        POSTINC0+0, 0 
	MOVWF       POSTINC1+0 
;rfidsource.c,43 :: 		for(i=1;i<11;i++){
	INCF        _i+0, 1 
;rfidsource.c,46 :: 		}
	GOTO        L_addCard31
L_addCard32:
;rfidsource.c,47 :: 		Exist1=strstr(uart_rd,id[Row/16]);
	MOVLW       _uart_rd+0
	MOVWF       FARG_strstr_s1+0 
	MOVLW       hi_addr(_uart_rd+0)
	MOVWF       FARG_strstr_s1+1 
	MOVF        _Row+0, 0 
	MOVWF       R0 
	RRCF        R0, 1 
	BCF         R0, 7 
	RRCF        R0, 1 
	BCF         R0, 7 
	RRCF        R0, 1 
	BCF         R0, 7 
	RRCF        R0, 1 
	BCF         R0, 7 
	MOVLW       0
	MOVWF       R1 
	MOVLW       14
	MOVWF       R4 
	MOVLW       0
	MOVWF       R5 
	CALL        _Mul_16x16_U+0, 0
	MOVLW       _id+0
	ADDWF       R0, 0 
	MOVWF       FARG_strstr_s2+0 
	MOVLW       hi_addr(_id+0)
	ADDWFC      R1, 0 
	MOVWF       FARG_strstr_s2+1 
	CALL        _strstr+0, 0
	MOVF        R0, 0 
	MOVWF       _Exist1+0 
;rfidsource.c,48 :: 		if(Exist1!=0){
	MOVF        R0, 0 
	XORLW       0
	BTFSC       STATUS+0, 2 
	GOTO        L_addCard34
;rfidsource.c,49 :: 		Lcd_Cmd(_LCD_CLEAR);
	MOVLW       1
	MOVWF       FARG_Lcd_Cmd_out_char+0 
	CALL        _Lcd_Cmd+0, 0
;rfidsource.c,50 :: 		Lcd_Out(1,3,"Card Added");
	MOVLW       1
	MOVWF       FARG_Lcd_Out_row+0 
	MOVLW       3
	MOVWF       FARG_Lcd_Out_column+0 
	MOVLW       ?lstr2_Test+0
	MOVWF       FARG_Lcd_Out_text+0 
	MOVLW       hi_addr(?lstr2_Test+0)
	MOVWF       FARG_Lcd_Out_text+1 
	CALL        _Lcd_Out+0, 0
;rfidsource.c,51 :: 		cardExists=1;
	MOVLW       1
	MOVWF       _cardExists+0 
;rfidsource.c,52 :: 		return 0;
	CLRF        R0 
	GOTO        L_end_addCard
;rfidsource.c,53 :: 		}
L_addCard34:
;rfidsource.c,54 :: 		}
L_addCard26:
;rfidsource.c,55 :: 		}
	GOTO        L_addCard35
L_addCard21:
;rfidsource.c,57 :: 		Lcd_Cmd(_LCD_CLEAR);
	MOVLW       1
	MOVWF       FARG_Lcd_Cmd_out_char+0 
	CALL        _Lcd_Cmd+0, 0
;rfidsource.c,58 :: 		Lcd_Out(1,5,"Failed");
	MOVLW       1
	MOVWF       FARG_Lcd_Out_row+0 
	MOVLW       5
	MOVWF       FARG_Lcd_Out_column+0 
	MOVLW       ?lstr3_Test+0
	MOVWF       FARG_Lcd_Out_text+0 
	MOVLW       hi_addr(?lstr3_Test+0)
	MOVWF       FARG_Lcd_Out_text+1 
	CALL        _Lcd_Out+0, 0
;rfidsource.c,59 :: 		return 0;
	CLRF        R0 
	GOTO        L_end_addCard
;rfidsource.c,60 :: 		}
L_addCard35:
;rfidsource.c,61 :: 		}
L_addCard12:
;rfidsource.c,62 :: 		}
	GOTO        L_addCard7
;rfidsource.c,63 :: 		}
L_end_addCard:
	RETURN      0
; end of _addCard

_removeCard:

;rfidsource.c,65 :: 		char removeCard(){
;rfidsource.c,66 :: 		cardExists=0;
	CLRF        _cardExists+0 
;rfidsource.c,67 :: 		RFIDEnable=1;
	BSF         RC0_bit+0, BitPos(RC0_bit+0) 
;rfidsource.c,68 :: 		for(;;){
L_removeCard36:
;rfidsource.c,69 :: 		if (UART1_Data_Ready() == 1&&cardExists==0){
	CALL        _UART1_Data_Ready+0, 0
	MOVF        R0, 0 
	XORLW       1
	BTFSS       STATUS+0, 2 
	GOTO        L_removeCard41
	MOVF        _cardExists+0, 0 
	XORLW       0
	BTFSS       STATUS+0, 2 
	GOTO        L_removeCard41
L__removeCard123:
;rfidsource.c,70 :: 		for(i=0;i<12;i++){
	CLRF        _i+0 
L_removeCard42:
	MOVLW       12
	SUBWF       _i+0, 0 
	BTFSC       STATUS+0, 0 
	GOTO        L_removeCard43
;rfidsource.c,71 :: 		for(;!UART1_Data_Ready(););
L_removeCard45:
	CALL        _UART1_Data_Ready+0, 0
	MOVF        R0, 1 
	BTFSS       STATUS+0, 2 
	GOTO        L_removeCard46
	GOTO        L_removeCard45
L_removeCard46:
;rfidsource.c,72 :: 		uart_rd[i]=UART1_Read();
	MOVLW       _uart_rd+0
	MOVWF       FLOC__removeCard+0 
	MOVLW       hi_addr(_uart_rd+0)
	MOVWF       FLOC__removeCard+1 
	MOVF        _i+0, 0 
	ADDWF       FLOC__removeCard+0, 1 
	BTFSC       STATUS+0, 0 
	INCF        FLOC__removeCard+1, 1 
	CALL        _UART1_Read+0, 0
	MOVFF       FLOC__removeCard+0, FSR1
	MOVFF       FLOC__removeCard+1, FSR1H
	MOVF        R0, 0 
	MOVWF       POSTINC1+0 
;rfidsource.c,70 :: 		for(i=0;i<12;i++){
	INCF        _i+0, 1 
;rfidsource.c,73 :: 		}
	GOTO        L_removeCard42
L_removeCard43:
;rfidsource.c,74 :: 		RFIDEnable=0;
	BCF         RC0_bit+0, BitPos(RC0_bit+0) 
;rfidsource.c,75 :: 		if(uart_rd[0]==0x0A&&uart_rd[11]==0x0D){
	MOVF        _uart_rd+0, 0 
	XORLW       10
	BTFSS       STATUS+0, 2 
	GOTO        L_removeCard50
	MOVF        _uart_rd+11, 0 
	XORLW       13
	BTFSS       STATUS+0, 2 
	GOTO        L_removeCard50
L__removeCard122:
;rfidsource.c,76 :: 		for(i=0;i<16;i++){
	CLRF        _i+0 
L_removeCard51:
	MOVLW       16
	SUBWF       _i+0, 0 
	BTFSC       STATUS+0, 0 
	GOTO        L_removeCard52
;rfidsource.c,77 :: 		Exist1=strstr(uart_rd,id[i]);
	MOVLW       _uart_rd+0
	MOVWF       FARG_strstr_s1+0 
	MOVLW       hi_addr(_uart_rd+0)
	MOVWF       FARG_strstr_s1+1 
	MOVLW       14
	MOVWF       R0 
	MOVLW       0
	MOVWF       R1 
	MOVF        _i+0, 0 
	MOVWF       R4 
	MOVLW       0
	MOVWF       R5 
	CALL        _Mul_16x16_U+0, 0
	MOVLW       _id+0
	ADDWF       R0, 0 
	MOVWF       FARG_strstr_s2+0 
	MOVLW       hi_addr(_id+0)
	ADDWFC      R1, 0 
	MOVWF       FARG_strstr_s2+1 
	CALL        _strstr+0, 0
	MOVF        R0, 0 
	MOVWF       _Exist1+0 
;rfidsource.c,78 :: 		if(Exist1!=0)
	MOVF        R0, 0 
	XORLW       0
	BTFSC       STATUS+0, 2 
	GOTO        L_removeCard54
;rfidsource.c,80 :: 		for(j=0;j<10;j++){
	CLRF        _j+0 
L_removeCard55:
	MOVLW       10
	SUBWF       _j+0, 0 
	BTFSC       STATUS+0, 0 
	GOTO        L_removeCard56
;rfidsource.c,81 :: 		id[i][j]=0x9F;
	MOVLW       14
	MOVWF       R0 
	MOVLW       0
	MOVWF       R1 
	MOVF        _i+0, 0 
	MOVWF       R4 
	MOVLW       0
	MOVWF       R5 
	CALL        _Mul_16x16_U+0, 0
	MOVLW       _id+0
	ADDWF       R0, 1 
	MOVLW       hi_addr(_id+0)
	ADDWFC      R1, 1 
	MOVF        _j+0, 0 
	ADDWF       R0, 0 
	MOVWF       FSR1 
	MOVLW       0
	ADDWFC      R1, 0 
	MOVWF       FSR1H 
	MOVLW       159
	MOVWF       POSTINC1+0 
;rfidsource.c,82 :: 		EEPROM_Write((i*16)+j,0x9F);
	MOVF        _i+0, 0 
	MOVWF       FARG_EEPROM_Write_address+0 
	RLCF        FARG_EEPROM_Write_address+0, 1 
	BCF         FARG_EEPROM_Write_address+0, 0 
	RLCF        FARG_EEPROM_Write_address+0, 1 
	BCF         FARG_EEPROM_Write_address+0, 0 
	RLCF        FARG_EEPROM_Write_address+0, 1 
	BCF         FARG_EEPROM_Write_address+0, 0 
	RLCF        FARG_EEPROM_Write_address+0, 1 
	BCF         FARG_EEPROM_Write_address+0, 0 
	MOVF        _j+0, 0 
	ADDWF       FARG_EEPROM_Write_address+0, 1 
	MOVLW       159
	MOVWF       FARG_EEPROM_Write_data_+0 
	CALL        _EEPROM_Write+0, 0
;rfidsource.c,80 :: 		for(j=0;j<10;j++){
	INCF        _j+0, 1 
;rfidsource.c,83 :: 		}
	GOTO        L_removeCard55
L_removeCard56:
;rfidsource.c,84 :: 		cardExists=1;
	MOVLW       1
	MOVWF       _cardExists+0 
;rfidsource.c,85 :: 		Lcd_Cmd(_LCD_CLEAR);
	MOVLW       1
	MOVWF       FARG_Lcd_Cmd_out_char+0 
	CALL        _Lcd_Cmd+0, 0
;rfidsource.c,86 :: 		Lcd_Out(1,3,"Card Removed");
	MOVLW       1
	MOVWF       FARG_Lcd_Out_row+0 
	MOVLW       3
	MOVWF       FARG_Lcd_Out_column+0 
	MOVLW       ?lstr4_Test+0
	MOVWF       FARG_Lcd_Out_text+0 
	MOVLW       hi_addr(?lstr4_Test+0)
	MOVWF       FARG_Lcd_Out_text+1 
	CALL        _Lcd_Out+0, 0
;rfidsource.c,87 :: 		return 0;
	CLRF        R0 
	GOTO        L_end_removeCard
;rfidsource.c,88 :: 		}
L_removeCard54:
;rfidsource.c,76 :: 		for(i=0;i<16;i++){
	INCF        _i+0, 1 
;rfidsource.c,89 :: 		}
	GOTO        L_removeCard51
L_removeCard52:
;rfidsource.c,90 :: 		}
	GOTO        L_removeCard58
L_removeCard50:
;rfidsource.c,92 :: 		Lcd_Cmd(_LCD_CLEAR);
	MOVLW       1
	MOVWF       FARG_Lcd_Cmd_out_char+0 
	CALL        _Lcd_Cmd+0, 0
;rfidsource.c,93 :: 		Lcd_Out(1,5,"Failed");
	MOVLW       1
	MOVWF       FARG_Lcd_Out_row+0 
	MOVLW       5
	MOVWF       FARG_Lcd_Out_column+0 
	MOVLW       ?lstr5_Test+0
	MOVWF       FARG_Lcd_Out_text+0 
	MOVLW       hi_addr(?lstr5_Test+0)
	MOVWF       FARG_Lcd_Out_text+1 
	CALL        _Lcd_Out+0, 0
;rfidsource.c,94 :: 		return 0;
	CLRF        R0 
	GOTO        L_end_removeCard
;rfidsource.c,95 :: 		}
L_removeCard58:
;rfidsource.c,96 :: 		}
L_removeCard41:
;rfidsource.c,97 :: 		}
	GOTO        L_removeCard36
;rfidsource.c,98 :: 		}
L_end_removeCard:
	RETURN      0
; end of _removeCard

_CheckCard:

;rfidsource.c,99 :: 		char CheckCard(){
;rfidsource.c,100 :: 		RFIDEnable=1;
	BSF         RC0_bit+0, BitPos(RC0_bit+0) 
;rfidsource.c,101 :: 		if (UART1_Data_Ready() == 1)
	CALL        _UART1_Data_Ready+0, 0
	MOVF        R0, 0 
	XORLW       1
	BTFSS       STATUS+0, 2 
	GOTO        L_CheckCard59
;rfidsource.c,103 :: 		for(i=0;i<12;i++){
	CLRF        _i+0 
L_CheckCard60:
	MOVLW       12
	SUBWF       _i+0, 0 
	BTFSC       STATUS+0, 0 
	GOTO        L_CheckCard61
;rfidsource.c,104 :: 		for(;!UART1_Data_Ready(););
L_CheckCard63:
	CALL        _UART1_Data_Ready+0, 0
	MOVF        R0, 1 
	BTFSS       STATUS+0, 2 
	GOTO        L_CheckCard64
	GOTO        L_CheckCard63
L_CheckCard64:
;rfidsource.c,105 :: 		uart_rd[i]=UART1_Read();
	MOVLW       _uart_rd+0
	MOVWF       FLOC__CheckCard+0 
	MOVLW       hi_addr(_uart_rd+0)
	MOVWF       FLOC__CheckCard+1 
	MOVF        _i+0, 0 
	ADDWF       FLOC__CheckCard+0, 1 
	BTFSC       STATUS+0, 0 
	INCF        FLOC__CheckCard+1, 1 
	CALL        _UART1_Read+0, 0
	MOVFF       FLOC__CheckCard+0, FSR1
	MOVFF       FLOC__CheckCard+1, FSR1H
	MOVF        R0, 0 
	MOVWF       POSTINC1+0 
;rfidsource.c,103 :: 		for(i=0;i<12;i++){
	INCF        _i+0, 1 
;rfidsource.c,106 :: 		}
	GOTO        L_CheckCard60
L_CheckCard61:
;rfidsource.c,107 :: 		RFIDEnable=0;
	BCF         RC0_bit+0, BitPos(RC0_bit+0) 
;rfidsource.c,108 :: 		if(uart_rd[0]==0x0A&&uart_rd[11]==0x0D){
	MOVF        _uart_rd+0, 0 
	XORLW       10
	BTFSS       STATUS+0, 2 
	GOTO        L_CheckCard68
	MOVF        _uart_rd+11, 0 
	XORLW       13
	BTFSS       STATUS+0, 2 
	GOTO        L_CheckCard68
L__CheckCard124:
;rfidsource.c,109 :: 		for(i=0;i<16;i++){
	CLRF        _i+0 
L_CheckCard69:
	MOVLW       16
	SUBWF       _i+0, 0 
	BTFSC       STATUS+0, 0 
	GOTO        L_CheckCard70
;rfidsource.c,110 :: 		Exist=strstr(uart_rd,id[i]);
	MOVLW       _uart_rd+0
	MOVWF       FARG_strstr_s1+0 
	MOVLW       hi_addr(_uart_rd+0)
	MOVWF       FARG_strstr_s1+1 
	MOVLW       14
	MOVWF       R0 
	MOVLW       0
	MOVWF       R1 
	MOVF        _i+0, 0 
	MOVWF       R4 
	MOVLW       0
	MOVWF       R5 
	CALL        _Mul_16x16_U+0, 0
	MOVLW       _id+0
	ADDWF       R0, 0 
	MOVWF       FARG_strstr_s2+0 
	MOVLW       hi_addr(_id+0)
	ADDWFC      R1, 0 
	MOVWF       FARG_strstr_s2+1 
	CALL        _strstr+0, 0
	MOVF        R0, 0 
	MOVWF       _Exist+0 
;rfidsource.c,111 :: 		if(Exist!=0){
	MOVF        R0, 0 
	XORLW       0
	BTFSC       STATUS+0, 2 
	GOTO        L_CheckCard72
;rfidsource.c,112 :: 		registeredCardAction();
	CALL        _registeredCardAction+0, 0
;rfidsource.c,113 :: 		return 0;
	CLRF        R0 
	GOTO        L_end_CheckCard
;rfidsource.c,114 :: 		}
L_CheckCard72:
;rfidsource.c,109 :: 		for(i=0;i<16;i++){
	INCF        _i+0, 1 
;rfidsource.c,115 :: 		}
	GOTO        L_CheckCard69
L_CheckCard70:
;rfidsource.c,116 :: 		notRegisteredCardAction();
	CALL        _notRegisteredCardAction+0, 0
;rfidsource.c,117 :: 		return 0;
	CLRF        R0 
	GOTO        L_end_CheckCard
;rfidsource.c,118 :: 		}
L_CheckCard68:
;rfidsource.c,119 :: 		}
L_CheckCard59:
;rfidsource.c,120 :: 		}
L_end_CheckCard:
	RETURN      0
; end of _CheckCard

_registeredCardAction:

;rfidsource.c,121 :: 		void registeredCardAction(){
;rfidsource.c,122 :: 		Lcd_Cmd(_LCD_CLEAR);
	MOVLW       1
	MOVWF       FARG_Lcd_Cmd_out_char+0 
	CALL        _Lcd_Cmd+0, 0
;rfidsource.c,123 :: 		Lcd_Out(1,1,"Done");
	MOVLW       1
	MOVWF       FARG_Lcd_Out_row+0 
	MOVLW       1
	MOVWF       FARG_Lcd_Out_column+0 
	MOVLW       ?lstr6_Test+0
	MOVWF       FARG_Lcd_Out_text+0 
	MOVLW       hi_addr(?lstr6_Test+0)
	MOVWF       FARG_Lcd_Out_text+1 
	CALL        _Lcd_Out+0, 0
;rfidsource.c,124 :: 		delay_ms(1000);
	MOVLW       11
	MOVWF       R11, 0
	MOVLW       38
	MOVWF       R12, 0
	MOVLW       93
	MOVWF       R13, 0
L_registeredCardAction73:
	DECFSZ      R13, 1, 1
	BRA         L_registeredCardAction73
	DECFSZ      R12, 1, 1
	BRA         L_registeredCardAction73
	DECFSZ      R11, 1, 1
	BRA         L_registeredCardAction73
	NOP
	NOP
;rfidsource.c,125 :: 		Lcd_Cmd(_LCD_CLEAR);
	MOVLW       1
	MOVWF       FARG_Lcd_Cmd_out_char+0 
	CALL        _Lcd_Cmd+0, 0
;rfidsource.c,126 :: 		Lcd_Out(1,1,"Pass Your ID");
	MOVLW       1
	MOVWF       FARG_Lcd_Out_row+0 
	MOVLW       1
	MOVWF       FARG_Lcd_Out_column+0 
	MOVLW       ?lstr7_Test+0
	MOVWF       FARG_Lcd_Out_text+0 
	MOVLW       hi_addr(?lstr7_Test+0)
	MOVWF       FARG_Lcd_Out_text+1 
	CALL        _Lcd_Out+0, 0
;rfidsource.c,127 :: 		}
L_end_registeredCardAction:
	RETURN      0
; end of _registeredCardAction

_notRegisteredCardAction:

;rfidsource.c,129 :: 		void notRegisteredCardAction(){
;rfidsource.c,130 :: 		Lcd_Cmd(_LCD_CLEAR);
	MOVLW       1
	MOVWF       FARG_Lcd_Cmd_out_char+0 
	CALL        _Lcd_Cmd+0, 0
;rfidsource.c,131 :: 		Lcd_Out(1,1,"Not Registered");
	MOVLW       1
	MOVWF       FARG_Lcd_Out_row+0 
	MOVLW       1
	MOVWF       FARG_Lcd_Out_column+0 
	MOVLW       ?lstr8_Test+0
	MOVWF       FARG_Lcd_Out_text+0 
	MOVLW       hi_addr(?lstr8_Test+0)
	MOVWF       FARG_Lcd_Out_text+1 
	CALL        _Lcd_Out+0, 0
;rfidsource.c,132 :: 		delay_ms(1000);
	MOVLW       11
	MOVWF       R11, 0
	MOVLW       38
	MOVWF       R12, 0
	MOVLW       93
	MOVWF       R13, 0
L_notRegisteredCardAction74:
	DECFSZ      R13, 1, 1
	BRA         L_notRegisteredCardAction74
	DECFSZ      R12, 1, 1
	BRA         L_notRegisteredCardAction74
	DECFSZ      R11, 1, 1
	BRA         L_notRegisteredCardAction74
	NOP
	NOP
;rfidsource.c,133 :: 		Lcd_Cmd(_LCD_CLEAR);
	MOVLW       1
	MOVWF       FARG_Lcd_Cmd_out_char+0 
	CALL        _Lcd_Cmd+0, 0
;rfidsource.c,134 :: 		Lcd_Out(1,1,"Pass Your ID");
	MOVLW       1
	MOVWF       FARG_Lcd_Out_row+0 
	MOVLW       1
	MOVWF       FARG_Lcd_Out_column+0 
	MOVLW       ?lstr9_Test+0
	MOVWF       FARG_Lcd_Out_text+0 
	MOVLW       hi_addr(?lstr9_Test+0)
	MOVWF       FARG_Lcd_Out_text+1 
	CALL        _Lcd_Out+0, 0
;rfidsource.c,135 :: 		}
L_end_notRegisteredCardAction:
	RETURN      0
; end of _notRegisteredCardAction

_Initialization:

;rtc_source.c,4 :: 		void Initialization()
;rtc_source.c,6 :: 		TRISC0_bit=0;
	BCF         TRISC0_bit+0, BitPos(TRISC0_bit+0) 
;rtc_source.c,7 :: 		RFIDEnable=1;
	BSF         RC0_bit+0, BitPos(RC0_bit+0) 
;rtc_source.c,8 :: 		GrapIDs();
	CALL        _GrapIDs+0, 0
;rtc_source.c,9 :: 		Keypad_Init();                           // Initialize Keypad
	CALL        _Keypad_Init+0, 0
;rtc_source.c,10 :: 		Lcd_Init();                              // Initialize LCD
	CALL        _Lcd_Init+0, 0
;rtc_source.c,11 :: 		Lcd_Cmd(_LCD_CLEAR);                     // Clear display
	MOVLW       1
	MOVWF       FARG_Lcd_Cmd_out_char+0 
	CALL        _Lcd_Cmd+0, 0
;rtc_source.c,12 :: 		Lcd_Cmd(_LCD_CURSOR_OFF);                // Cursor off  Lcd_Out(1, 1, "1");
	MOVLW       12
	MOVWF       FARG_Lcd_Cmd_out_char+0 
	CALL        _Lcd_Cmd+0, 0
;rtc_source.c,13 :: 		Lcd_Out(1,2,"Pass Your ID");
	MOVLW       1
	MOVWF       FARG_Lcd_Out_row+0 
	MOVLW       2
	MOVWF       FARG_Lcd_Out_column+0 
	MOVLW       ?lstr10_Test+0
	MOVWF       FARG_Lcd_Out_text+0 
	MOVLW       hi_addr(?lstr10_Test+0)
	MOVWF       FARG_Lcd_Out_text+1 
	CALL        _Lcd_Out+0, 0
;rtc_source.c,14 :: 		UART1_Init(2400);
	MOVLW       207
	MOVWF       SPBRG+0 
	BSF         TXSTA+0, 2, 0
	CALL        _UART1_Init+0, 0
;rtc_source.c,15 :: 		Delay_ms(100);
	MOVLW       2
	MOVWF       R11, 0
	MOVLW       4
	MOVWF       R12, 0
	MOVLW       186
	MOVWF       R13, 0
L_Initialization75:
	DECFSZ      R13, 1, 1
	BRA         L_Initialization75
	DECFSZ      R12, 1, 1
	BRA         L_Initialization75
	DECFSZ      R11, 1, 1
	BRA         L_Initialization75
	NOP
;rtc_source.c,16 :: 		}
L_end_Initialization:
	RETURN      0
; end of _Initialization

_checkPassword:

;rtc_source.c,19 :: 		char checkPassword(){
;rtc_source.c,20 :: 		for(;;){
L_checkPassword76:
;rtc_source.c,21 :: 		kp = 0;
	CLRF        _kp+0 
;rtc_source.c,22 :: 		kp = Keypad_Key_Click();             // Store key code in kp variable
	CALL        _Keypad_Key_Click+0, 0
	MOVF        R0, 0 
	MOVWF       _kp+0 
;rtc_source.c,23 :: 		if(kp==0) return 0;
	MOVF        R0, 0 
	XORLW       0
	BTFSS       STATUS+0, 2 
	GOTO        L_checkPassword79
	CLRF        R0 
	GOTO        L_end_checkPassword
L_checkPassword79:
;rtc_source.c,24 :: 		kp=Mask(kp);
	MOVF        _kp+0, 0 
	MOVWF       FARG_Mask_kp+0 
	CALL        _Mask+0, 0
	MOVF        R0, 0 
	MOVWF       _kp+0 
;rtc_source.c,25 :: 		Enter_ID[cnt]=kp;
	MOVLW       _Enter_ID+0
	MOVWF       FSR1 
	MOVLW       hi_addr(_Enter_ID+0)
	MOVWF       FSR1H 
	MOVF        _cnt+0, 0 
	ADDWF       FSR1, 1 
	MOVLW       0
	BTFSC       _cnt+0, 7 
	MOVLW       255
	ADDWFC      FSR1H, 1 
	MOVF        R0, 0 
	MOVWF       POSTINC1+0 
;rtc_source.c,26 :: 		Lcd_Chr(2,cnt+1,kp);
	MOVLW       2
	MOVWF       FARG_Lcd_Chr_row+0 
	MOVF        _cnt+0, 0 
	ADDLW       1
	MOVWF       FARG_Lcd_Chr_column+0 
	MOVF        _kp+0, 0 
	MOVWF       FARG_Lcd_Chr_out_char+0 
	CALL        _Lcd_Chr+0, 0
;rtc_source.c,27 :: 		i++;
	INCF        _i+0, 1 
;rtc_source.c,28 :: 		cnt++;
	INCF        _cnt+0, 1 
;rtc_source.c,29 :: 		if(cnt>3)
	MOVLW       128
	XORLW       3
	MOVWF       R0 
	MOVLW       128
	XORWF       _cnt+0, 0 
	SUBWF       R0, 0 
	BTFSC       STATUS+0, 0 
	GOTO        L_checkPassword80
;rtc_source.c,31 :: 		Lcd_Chr(2,i+1,Enter_ID[cnt]);
	MOVLW       2
	MOVWF       FARG_Lcd_Chr_row+0 
	MOVF        _i+0, 0 
	ADDLW       1
	MOVWF       FARG_Lcd_Chr_column+0 
	MOVLW       _Enter_ID+0
	MOVWF       FSR0 
	MOVLW       hi_addr(_Enter_ID+0)
	MOVWF       FSR0H 
	MOVF        _cnt+0, 0 
	ADDWF       FSR0, 1 
	MOVLW       0
	BTFSC       _cnt+0, 7 
	MOVLW       255
	ADDWFC      FSR0H, 1 
	MOVF        POSTINC0+0, 0 
	MOVWF       FARG_Lcd_Chr_out_char+0 
	CALL        _Lcd_Chr+0, 0
;rtc_source.c,32 :: 		e=strstr(Enter_ID,pass_word);
	MOVLW       _Enter_ID+0
	MOVWF       FARG_strstr_s1+0 
	MOVLW       hi_addr(_Enter_ID+0)
	MOVWF       FARG_strstr_s1+1 
	MOVLW       _pass_word+0
	MOVWF       FARG_strstr_s2+0 
	MOVLW       hi_addr(_pass_word+0)
	MOVWF       FARG_strstr_s2+1 
	CALL        _strstr+0, 0
	MOVF        R0, 0 
	MOVWF       _e+0 
;rtc_source.c,33 :: 		if(e!=0)
	MOVF        R0, 0 
	XORLW       0
	BTFSC       STATUS+0, 2 
	GOTO        L_checkPassword81
;rtc_source.c,35 :: 		correctPassword();
	CALL        _correctPassword+0, 0
;rtc_source.c,36 :: 		delay_ms(1000);
	MOVLW       11
	MOVWF       R11, 0
	MOVLW       38
	MOVWF       R12, 0
	MOVLW       93
	MOVWF       R13, 0
L_checkPassword82:
	DECFSZ      R13, 1, 1
	BRA         L_checkPassword82
	DECFSZ      R12, 1, 1
	BRA         L_checkPassword82
	DECFSZ      R11, 1, 1
	BRA         L_checkPassword82
	NOP
	NOP
;rtc_source.c,37 :: 		Lcd_Cmd(_LCD_CLEAR);                     // Clear display
	MOVLW       1
	MOVWF       FARG_Lcd_Cmd_out_char+0 
	CALL        _Lcd_Cmd+0, 0
;rtc_source.c,38 :: 		Lcd_Out(1,2,"Pass Your ID");
	MOVLW       1
	MOVWF       FARG_Lcd_Out_row+0 
	MOVLW       2
	MOVWF       FARG_Lcd_Out_column+0 
	MOVLW       ?lstr11_Test+0
	MOVWF       FARG_Lcd_Out_text+0 
	MOVLW       hi_addr(?lstr11_Test+0)
	MOVWF       FARG_Lcd_Out_text+1 
	CALL        _Lcd_Out+0, 0
;rtc_source.c,39 :: 		return 0;
	CLRF        R0 
	GOTO        L_end_checkPassword
;rtc_source.c,40 :: 		}
L_checkPassword81:
;rtc_source.c,42 :: 		wrongPassword();
	CALL        _wrongPassword+0, 0
;rtc_source.c,43 :: 		Lcd_Cmd(_LCD_CLEAR);                     // Clear display
	MOVLW       1
	MOVWF       FARG_Lcd_Cmd_out_char+0 
	CALL        _Lcd_Cmd+0, 0
;rtc_source.c,44 :: 		Lcd_Out(1,2,"Pass Your ID");
	MOVLW       1
	MOVWF       FARG_Lcd_Out_row+0 
	MOVLW       2
	MOVWF       FARG_Lcd_Out_column+0 
	MOVLW       ?lstr12_Test+0
	MOVWF       FARG_Lcd_Out_text+0 
	MOVLW       hi_addr(?lstr12_Test+0)
	MOVWF       FARG_Lcd_Out_text+1 
	CALL        _Lcd_Out+0, 0
;rtc_source.c,45 :: 		return 0;
	CLRF        R0 
	GOTO        L_end_checkPassword
;rtc_source.c,47 :: 		}
L_checkPassword80:
;rtc_source.c,48 :: 		}
	GOTO        L_checkPassword76
;rtc_source.c,49 :: 		}
L_end_checkPassword:
	RETURN      0
; end of _checkPassword

_correctPassword:

;rtc_source.c,51 :: 		void correctPassword(){
;rtc_source.c,52 :: 		cnt=0;
	CLRF        _cnt+0 
;rtc_source.c,53 :: 		Lcd_Cmd(_LCD_CLEAR);
	MOVLW       1
	MOVWF       FARG_Lcd_Cmd_out_char+0 
	CALL        _Lcd_Cmd+0, 0
;rtc_source.c,54 :: 		Lcd_Out(1,1,"Correct Password");
	MOVLW       1
	MOVWF       FARG_Lcd_Out_row+0 
	MOVLW       1
	MOVWF       FARG_Lcd_Out_column+0 
	MOVLW       ?lstr13_Test+0
	MOVWF       FARG_Lcd_Out_text+0 
	MOVLW       hi_addr(?lstr13_Test+0)
	MOVWF       FARG_Lcd_Out_text+1 
	CALL        _Lcd_Out+0, 0
;rtc_source.c,55 :: 		delay_ms(1000);
	MOVLW       11
	MOVWF       R11, 0
	MOVLW       38
	MOVWF       R12, 0
	MOVLW       93
	MOVWF       R13, 0
L_correctPassword84:
	DECFSZ      R13, 1, 1
	BRA         L_correctPassword84
	DECFSZ      R12, 1, 1
	BRA         L_correctPassword84
	DECFSZ      R11, 1, 1
	BRA         L_correctPassword84
	NOP
	NOP
;rtc_source.c,56 :: 		Lcd_Cmd(_LCD_CLEAR);
	MOVLW       1
	MOVWF       FARG_Lcd_Cmd_out_char+0 
	CALL        _Lcd_Cmd+0, 0
;rtc_source.c,57 :: 		Lcd_Out(1,1,"Choose Option");
	MOVLW       1
	MOVWF       FARG_Lcd_Out_row+0 
	MOVLW       1
	MOVWF       FARG_Lcd_Out_column+0 
	MOVLW       ?lstr14_Test+0
	MOVWF       FARG_Lcd_Out_text+0 
	MOVLW       hi_addr(?lstr14_Test+0)
	MOVWF       FARG_Lcd_Out_text+1 
	CALL        _Lcd_Out+0, 0
;rtc_source.c,58 :: 		delay_ms(1000);
	MOVLW       11
	MOVWF       R11, 0
	MOVLW       38
	MOVWF       R12, 0
	MOVLW       93
	MOVWF       R13, 0
L_correctPassword85:
	DECFSZ      R13, 1, 1
	BRA         L_correctPassword85
	DECFSZ      R12, 1, 1
	BRA         L_correctPassword85
	DECFSZ      R11, 1, 1
	BRA         L_correctPassword85
	NOP
	NOP
;rtc_source.c,59 :: 		Lcd_Cmd(_LCD_CLEAR);
	MOVLW       1
	MOVWF       FARG_Lcd_Cmd_out_char+0 
	CALL        _Lcd_Cmd+0, 0
;rtc_source.c,60 :: 		Lcd_Out(1,1,"1 AddCard 3 Back");
	MOVLW       1
	MOVWF       FARG_Lcd_Out_row+0 
	MOVLW       1
	MOVWF       FARG_Lcd_Out_column+0 
	MOVLW       ?lstr15_Test+0
	MOVWF       FARG_Lcd_Out_text+0 
	MOVLW       hi_addr(?lstr15_Test+0)
	MOVWF       FARG_Lcd_Out_text+1 
	CALL        _Lcd_Out+0, 0
;rtc_source.c,61 :: 		Lcd_Out(2,1,"2 Remove Card");
	MOVLW       2
	MOVWF       FARG_Lcd_Out_row+0 
	MOVLW       1
	MOVWF       FARG_Lcd_Out_column+0 
	MOVLW       ?lstr16_Test+0
	MOVWF       FARG_Lcd_Out_text+0 
	MOVLW       hi_addr(?lstr16_Test+0)
	MOVWF       FARG_Lcd_Out_text+1 
	CALL        _Lcd_Out+0, 0
;rtc_source.c,62 :: 		readKeypad();
	CALL        _readKeypad+0, 0
;rtc_source.c,63 :: 		}
L_end_correctPassword:
	RETURN      0
; end of _correctPassword

_wrongPassword:

;rtc_source.c,64 :: 		void wrongPassword(){
;rtc_source.c,65 :: 		cnt=0;
	CLRF        _cnt+0 
;rtc_source.c,66 :: 		i=0;
	CLRF        _i+0 
;rtc_source.c,67 :: 		Lcd_Cmd(_LCD_CLEAR);                     // Clear display
	MOVLW       1
	MOVWF       FARG_Lcd_Cmd_out_char+0 
	CALL        _Lcd_Cmd+0, 0
;rtc_source.c,68 :: 		Lcd_Out(1,1,"Worng Password");
	MOVLW       1
	MOVWF       FARG_Lcd_Out_row+0 
	MOVLW       1
	MOVWF       FARG_Lcd_Out_column+0 
	MOVLW       ?lstr17_Test+0
	MOVWF       FARG_Lcd_Out_text+0 
	MOVLW       hi_addr(?lstr17_Test+0)
	MOVWF       FARG_Lcd_Out_text+1 
	CALL        _Lcd_Out+0, 0
;rtc_source.c,69 :: 		delay_ms(1000);
	MOVLW       11
	MOVWF       R11, 0
	MOVLW       38
	MOVWF       R12, 0
	MOVLW       93
	MOVWF       R13, 0
L_wrongPassword86:
	DECFSZ      R13, 1, 1
	BRA         L_wrongPassword86
	DECFSZ      R12, 1, 1
	BRA         L_wrongPassword86
	DECFSZ      R11, 1, 1
	BRA         L_wrongPassword86
	NOP
	NOP
;rtc_source.c,70 :: 		}
L_end_wrongPassword:
	RETURN      0
; end of _wrongPassword

_readKeypad:

;rtc_source.c,72 :: 		char readKeypad(){
;rtc_source.c,73 :: 		kp = 0;                                // Reset key code variable
	CLRF        _kp+0 
;rtc_source.c,74 :: 		do
L_readKeypad87:
;rtc_source.c,75 :: 		kp = Keypad_Key_Click();             // Store key code in kp variable
	CALL        _Keypad_Key_Click+0, 0
	MOVF        R0, 0 
	MOVWF       _kp+0 
;rtc_source.c,76 :: 		while (!kp);
	MOVF        R0, 1 
	BTFSC       STATUS+0, 2 
	GOTO        L_readKeypad87
;rtc_source.c,77 :: 		kp=Mask(kp);
	MOVF        _kp+0, 0 
	MOVWF       FARG_Mask_kp+0 
	CALL        _Mask+0, 0
	MOVF        R0, 0 
	MOVWF       _kp+0 
;rtc_source.c,78 :: 		if(kp=='1'){
	MOVF        R0, 0 
	XORLW       49
	BTFSS       STATUS+0, 2 
	GOTO        L_readKeypad90
;rtc_source.c,79 :: 		Lcd_Cmd(_LCD_CLEAR);
	MOVLW       1
	MOVWF       FARG_Lcd_Cmd_out_char+0 
	CALL        _Lcd_Cmd+0, 0
;rtc_source.c,80 :: 		Lcd_Out(1,1,"Put The Card");
	MOVLW       1
	MOVWF       FARG_Lcd_Out_row+0 
	MOVLW       1
	MOVWF       FARG_Lcd_Out_column+0 
	MOVLW       ?lstr18_Test+0
	MOVWF       FARG_Lcd_Out_text+0 
	MOVLW       hi_addr(?lstr18_Test+0)
	MOVWF       FARG_Lcd_Out_text+1 
	CALL        _Lcd_Out+0, 0
;rtc_source.c,81 :: 		delay_ms(1000);
	MOVLW       11
	MOVWF       R11, 0
	MOVLW       38
	MOVWF       R12, 0
	MOVLW       93
	MOVWF       R13, 0
L_readKeypad91:
	DECFSZ      R13, 1, 1
	BRA         L_readKeypad91
	DECFSZ      R12, 1, 1
	BRA         L_readKeypad91
	DECFSZ      R11, 1, 1
	BRA         L_readKeypad91
	NOP
	NOP
;rtc_source.c,82 :: 		addCard();
	CALL        _addCard+0, 0
;rtc_source.c,83 :: 		return 0;
	CLRF        R0 
	GOTO        L_end_readKeypad
;rtc_source.c,84 :: 		}
L_readKeypad90:
;rtc_source.c,85 :: 		else if(kp=='2'){
	MOVF        _kp+0, 0 
	XORLW       50
	BTFSS       STATUS+0, 2 
	GOTO        L_readKeypad93
;rtc_source.c,86 :: 		Lcd_Cmd(_LCD_CLEAR);
	MOVLW       1
	MOVWF       FARG_Lcd_Cmd_out_char+0 
	CALL        _Lcd_Cmd+0, 0
;rtc_source.c,87 :: 		Lcd_Out(1,1,"Put The Card");
	MOVLW       1
	MOVWF       FARG_Lcd_Out_row+0 
	MOVLW       1
	MOVWF       FARG_Lcd_Out_column+0 
	MOVLW       ?lstr19_Test+0
	MOVWF       FARG_Lcd_Out_text+0 
	MOVLW       hi_addr(?lstr19_Test+0)
	MOVWF       FARG_Lcd_Out_text+1 
	CALL        _Lcd_Out+0, 0
;rtc_source.c,88 :: 		delay_ms(1000);
	MOVLW       11
	MOVWF       R11, 0
	MOVLW       38
	MOVWF       R12, 0
	MOVLW       93
	MOVWF       R13, 0
L_readKeypad94:
	DECFSZ      R13, 1, 1
	BRA         L_readKeypad94
	DECFSZ      R12, 1, 1
	BRA         L_readKeypad94
	DECFSZ      R11, 1, 1
	BRA         L_readKeypad94
	NOP
	NOP
;rtc_source.c,89 :: 		removeCard();
	CALL        _removeCard+0, 0
;rtc_source.c,90 :: 		return 0;
	CLRF        R0 
	GOTO        L_end_readKeypad
;rtc_source.c,91 :: 		}
L_readKeypad93:
;rtc_source.c,92 :: 		else if(kp=='3'){
	MOVF        _kp+0, 0 
	XORLW       51
	BTFSS       STATUS+0, 2 
	GOTO        L_readKeypad96
;rtc_source.c,93 :: 		return 0;
	CLRF        R0 
	GOTO        L_end_readKeypad
;rtc_source.c,94 :: 		}
L_readKeypad96:
;rtc_source.c,95 :: 		}
L_end_readKeypad:
	RETURN      0
; end of _readKeypad

_read_ds1307:

;rtc_source.c,97 :: 		unsigned short read_ds1307(unsigned short address)
;rtc_source.c,100 :: 		I2C1_Start();
	CALL        _I2C1_Start+0, 0
;rtc_source.c,101 :: 		I2C1_Wr(0xD0); //address 0x68 followed by direction bit (0 for write, 1 for read) 0x68 followed by 0 --> 0xD0
	MOVLW       208
	MOVWF       FARG_I2C1_Wr_data_+0 
	CALL        _I2C1_Wr+0, 0
;rtc_source.c,102 :: 		I2C1_Wr(address);
	MOVF        FARG_read_ds1307_address+0, 0 
	MOVWF       FARG_I2C1_Wr_data_+0 
	CALL        _I2C1_Wr+0, 0
;rtc_source.c,103 :: 		I2C1_Stop();
	CALL        _I2C1_Stop+0, 0
;rtc_source.c,104 :: 		I2C1_Start();
	CALL        _I2C1_Start+0, 0
;rtc_source.c,105 :: 		I2C1_Wr(0xD1); //0x68 followed by 1 --> 0xD1
	MOVLW       209
	MOVWF       FARG_I2C1_Wr_data_+0 
	CALL        _I2C1_Wr+0, 0
;rtc_source.c,106 :: 		r_data=I2C1_Rd(0);
	CLRF        FARG_I2C1_Rd_ack+0 
	CALL        _I2C1_Rd+0, 0
	MOVF        R0, 0 
	MOVWF       read_ds1307_r_data_L0+0 
;rtc_source.c,107 :: 		I2C1_Stop();
	CALL        _I2C1_Stop+0, 0
;rtc_source.c,108 :: 		return r_data;
	MOVF        read_ds1307_r_data_L0+0, 0 
	MOVWF       R0 
;rtc_source.c,109 :: 		}
L_end_read_ds1307:
	RETURN      0
; end of _read_ds1307

_write_ds1307:

;rtc_source.c,112 :: 		void write_ds1307(unsigned short address,unsigned short w_data)
;rtc_source.c,114 :: 		I2C1_Start(); // issue I2C start signal
	CALL        _I2C1_Start+0, 0
;rtc_source.c,116 :: 		I2C1_Wr(0xD0); // send byte via I2C (device address + W)
	MOVLW       208
	MOVWF       FARG_I2C1_Wr_data_+0 
	CALL        _I2C1_Wr+0, 0
;rtc_source.c,117 :: 		I2C1_Wr(address); // send byte (address of DS1307 location)
	MOVF        FARG_write_ds1307_address+0, 0 
	MOVWF       FARG_I2C1_Wr_data_+0 
	CALL        _I2C1_Wr+0, 0
;rtc_source.c,118 :: 		I2C1_Wr(w_data); // send data (data to be written)
	MOVF        FARG_write_ds1307_w_data+0, 0 
	MOVWF       FARG_I2C1_Wr_data_+0 
	CALL        _I2C1_Wr+0, 0
;rtc_source.c,119 :: 		I2C1_Stop(); // issue I2C stop signal
	CALL        _I2C1_Stop+0, 0
;rtc_source.c,120 :: 		}
L_end_write_ds1307:
	RETURN      0
; end of _write_ds1307

_BCD2UpperCh:

;rtc_source.c,123 :: 		unsigned char BCD2UpperCh(unsigned char bcd)
;rtc_source.c,125 :: 		return ((bcd >> 4) + '0');
	MOVF        FARG_BCD2UpperCh_bcd+0, 0 
	MOVWF       R0 
	RRCF        R0, 1 
	BCF         R0, 7 
	RRCF        R0, 1 
	BCF         R0, 7 
	RRCF        R0, 1 
	BCF         R0, 7 
	RRCF        R0, 1 
	BCF         R0, 7 
	MOVLW       48
	ADDWF       R0, 1 
;rtc_source.c,126 :: 		}
L_end_BCD2UpperCh:
	RETURN      0
; end of _BCD2UpperCh

_BCD2LowerCh:

;rtc_source.c,129 :: 		unsigned char BCD2LowerCh(unsigned char bcd)
;rtc_source.c,131 :: 		return ((bcd & 0x0F) + '0');
	MOVLW       15
	ANDWF       FARG_BCD2LowerCh_bcd+0, 0 
	MOVWF       R0 
	MOVLW       48
	ADDWF       R0, 1 
;rtc_source.c,132 :: 		}
L_end_BCD2LowerCh:
	RETURN      0
; end of _BCD2LowerCh

_Binary2BCD:

;rtc_source.c,133 :: 		int Binary2BCD(int a)
;rtc_source.c,136 :: 		t1 = a%10;
	MOVLW       10
	MOVWF       R4 
	MOVLW       0
	MOVWF       R5 
	MOVF        FARG_Binary2BCD_a+0, 0 
	MOVWF       R0 
	MOVF        FARG_Binary2BCD_a+1, 0 
	MOVWF       R1 
	CALL        _Div_16x16_S+0, 0
	MOVF        R8, 0 
	MOVWF       R0 
	MOVF        R9, 0 
	MOVWF       R1 
	MOVF        R0, 0 
	MOVWF       Binary2BCD_t1_L0+0 
	MOVF        R1, 0 
	MOVWF       Binary2BCD_t1_L0+1 
;rtc_source.c,137 :: 		t1 = t1 & 0x0F;
	MOVLW       15
	ANDWF       R0, 0 
	MOVWF       Binary2BCD_t1_L0+0 
	MOVF        R1, 0 
	MOVWF       Binary2BCD_t1_L0+1 
	MOVLW       0
	ANDWF       Binary2BCD_t1_L0+1, 1 
;rtc_source.c,138 :: 		a = a/10;
	MOVLW       10
	MOVWF       R4 
	MOVLW       0
	MOVWF       R5 
	MOVF        FARG_Binary2BCD_a+0, 0 
	MOVWF       R0 
	MOVF        FARG_Binary2BCD_a+1, 0 
	MOVWF       R1 
	CALL        _Div_16x16_S+0, 0
	MOVF        R0, 0 
	MOVWF       FARG_Binary2BCD_a+0 
	MOVF        R1, 0 
	MOVWF       FARG_Binary2BCD_a+1 
;rtc_source.c,139 :: 		t2 = a%10;
	MOVLW       10
	MOVWF       R4 
	MOVLW       0
	MOVWF       R5 
	CALL        _Div_16x16_S+0, 0
	MOVF        R8, 0 
	MOVWF       R0 
	MOVF        R9, 0 
	MOVWF       R1 
;rtc_source.c,140 :: 		t2 = 0x0F & t2;
	MOVLW       15
	ANDWF       R0, 0 
	MOVWF       R3 
	MOVF        R1, 0 
	MOVWF       R4 
	MOVLW       0
	ANDWF       R4, 1 
;rtc_source.c,141 :: 		t2 = t2 << 4;
	MOVLW       4
	MOVWF       R2 
	MOVF        R3, 0 
	MOVWF       R0 
	MOVF        R4, 0 
	MOVWF       R1 
	MOVF        R2, 0 
L__Binary2BCD141:
	BZ          L__Binary2BCD142
	RLCF        R0, 1 
	BCF         R0, 0 
	RLCF        R1, 1 
	ADDLW       255
	GOTO        L__Binary2BCD141
L__Binary2BCD142:
;rtc_source.c,142 :: 		t2 = 0xF0 & t2;
	MOVLW       240
	ANDWF       R0, 1 
	MOVLW       0
	ANDWF       R1, 1 
;rtc_source.c,143 :: 		t1 = t1 | t2;
	MOVF        Binary2BCD_t1_L0+0, 0 
	IORWF       R0, 1 
	MOVF        Binary2BCD_t1_L0+1, 0 
	IORWF       R1, 1 
	MOVF        R0, 0 
	MOVWF       Binary2BCD_t1_L0+0 
	MOVF        R1, 0 
	MOVWF       Binary2BCD_t1_L0+1 
;rtc_source.c,144 :: 		return t1;
;rtc_source.c,145 :: 		}
L_end_Binary2BCD:
	RETURN      0
; end of _Binary2BCD

_BCD2Binary:

;rtc_source.c,148 :: 		int BCD2Binary(int a)
;rtc_source.c,151 :: 		t = a & 0x0F;
	MOVLW       15
	ANDWF       FARG_BCD2Binary_a+0, 0 
	MOVWF       BCD2Binary_r_L0+0 
	MOVF        FARG_BCD2Binary_a+1, 0 
	MOVWF       BCD2Binary_r_L0+1 
	MOVLW       0
	ANDWF       BCD2Binary_r_L0+1, 1 
;rtc_source.c,152 :: 		r = t;
;rtc_source.c,153 :: 		a = 0xF0 & a;
	MOVLW       240
	ANDWF       FARG_BCD2Binary_a+0, 0 
	MOVWF       R3 
	MOVF        FARG_BCD2Binary_a+1, 0 
	MOVWF       R4 
	MOVLW       0
	ANDWF       R4, 1 
	MOVF        R3, 0 
	MOVWF       FARG_BCD2Binary_a+0 
	MOVF        R4, 0 
	MOVWF       FARG_BCD2Binary_a+1 
;rtc_source.c,154 :: 		t = a >> 4;
	MOVLW       4
	MOVWF       R2 
	MOVF        R3, 0 
	MOVWF       R0 
	MOVF        R4, 0 
	MOVWF       R1 
	MOVF        R2, 0 
L__BCD2Binary144:
	BZ          L__BCD2Binary145
	RRCF        R1, 1 
	RRCF        R0, 1 
	BCF         R1, 7 
	BTFSC       R1, 6 
	BSF         R1, 7 
	ADDLW       255
	GOTO        L__BCD2Binary144
L__BCD2Binary145:
;rtc_source.c,155 :: 		t = 0x0F & t;
	MOVLW       15
	ANDWF       R0, 1 
	MOVLW       0
	ANDWF       R1, 1 
;rtc_source.c,156 :: 		r = t*10 + r;
	MOVLW       10
	MOVWF       R4 
	MOVLW       0
	MOVWF       R5 
	CALL        _Mul_16x16_U+0, 0
	MOVF        BCD2Binary_r_L0+0, 0 
	ADDWF       R0, 1 
	MOVF        BCD2Binary_r_L0+1, 0 
	ADDWFC      R1, 1 
	MOVF        R0, 0 
	MOVWF       BCD2Binary_r_L0+0 
	MOVF        R1, 0 
	MOVWF       BCD2Binary_r_L0+1 
;rtc_source.c,157 :: 		return r;
;rtc_source.c,158 :: 		}
L_end_BCD2Binary:
	RETURN      0
; end of _BCD2Binary

_Display_Time:

;rtc_source.c,160 :: 		void Display_Time()
;rtc_source.c,162 :: 		second =read_ds1307(0);
	CLRF        FARG_read_ds1307_address+0 
	CALL        _read_ds1307+0, 0
	MOVF        R0, 0 
	MOVWF       _second+0 
	MOVLW       0
	MOVWF       _second+1 
;rtc_source.c,163 :: 		minute = read_ds1307(1);
	MOVLW       1
	MOVWF       FARG_read_ds1307_address+0 
	CALL        _read_ds1307+0, 0
	MOVF        R0, 0 
	MOVWF       _minute+0 
	MOVLW       0
	MOVWF       _minute+1 
;rtc_source.c,164 :: 		hour = read_ds1307(2);
	MOVLW       2
	MOVWF       FARG_read_ds1307_address+0 
	CALL        _read_ds1307+0, 0
	MOVF        R0, 0 
	MOVWF       _hour+0 
	MOVLW       0
	MOVWF       _hour+1 
;rtc_source.c,165 :: 		hr = hour & 0b00011111;
	MOVLW       31
	ANDWF       _hour+0, 0 
	MOVWF       R0 
	MOVF        _hour+1, 0 
	MOVWF       R1 
	MOVLW       0
	ANDWF       R1, 1 
	MOVF        R0, 0 
	MOVWF       _hr+0 
	MOVF        R1, 0 
	MOVWF       _hr+1 
;rtc_source.c,166 :: 		ap = hour & 0b00100000;
	MOVLW       32
	ANDWF       _hour+0, 0 
	MOVWF       _ap+0 
	MOVF        _hour+1, 0 
	MOVWF       _ap+1 
	MOVLW       0
	ANDWF       _ap+1, 1 
;rtc_source.c,168 :: 		time[0] = BCD2UpperCh(hr);
	MOVF        R0, 0 
	MOVWF       FARG_BCD2UpperCh_bcd+0 
	CALL        _BCD2UpperCh+0, 0
	MOVF        R0, 0 
	MOVWF       _time+0 
;rtc_source.c,169 :: 		time[1] = BCD2LowerCh(hr);
	MOVF        _hr+0, 0 
	MOVWF       FARG_BCD2LowerCh_bcd+0 
	CALL        _BCD2LowerCh+0, 0
	MOVF        R0, 0 
	MOVWF       _time+1 
;rtc_source.c,170 :: 		time[3] = BCD2UpperCh(minute);
	MOVF        _minute+0, 0 
	MOVWF       FARG_BCD2UpperCh_bcd+0 
	CALL        _BCD2UpperCh+0, 0
	MOVF        R0, 0 
	MOVWF       _time+3 
;rtc_source.c,171 :: 		time[4] = BCD2LowerCh(minute);
	MOVF        _minute+0, 0 
	MOVWF       FARG_BCD2LowerCh_bcd+0 
	CALL        _BCD2LowerCh+0, 0
	MOVF        R0, 0 
	MOVWF       _time+4 
;rtc_source.c,172 :: 		time[6] = BCD2UpperCh(second);
	MOVF        _second+0, 0 
	MOVWF       FARG_BCD2UpperCh_bcd+0 
	CALL        _BCD2UpperCh+0, 0
	MOVF        R0, 0 
	MOVWF       _time+6 
;rtc_source.c,173 :: 		time[7] = BCD2LowerCh(second);
	MOVF        _second+0, 0 
	MOVWF       FARG_BCD2LowerCh_bcd+0 
	CALL        _BCD2LowerCh+0, 0
	MOVF        R0, 0 
	MOVWF       _time+7 
;rtc_source.c,176 :: 		if(ap)
	MOVF        _ap+0, 0 
	IORWF       _ap+1, 0 
	BTFSC       STATUS+0, 2 
	GOTO        L_Display_Time97
;rtc_source.c,178 :: 		time[9] = 'P';
	MOVLW       80
	MOVWF       _time+9 
;rtc_source.c,179 :: 		time[10] = 'M';
	MOVLW       77
	MOVWF       _time+10 
;rtc_source.c,180 :: 		}
	GOTO        L_Display_Time98
L_Display_Time97:
;rtc_source.c,183 :: 		time[9] = 'A';
	MOVLW       65
	MOVWF       _time+9 
;rtc_source.c,184 :: 		time[10] = 'M';
	MOVLW       77
	MOVWF       _time+10 
;rtc_source.c,185 :: 		}
L_Display_Time98:
;rtc_source.c,189 :: 		}
L_end_Display_Time:
	RETURN      0
; end of _Display_Time

_Display_date:

;rtc_source.c,190 :: 		char* Display_date()
;rtc_source.c,191 :: 		{    dday = read_ds1307(3);
	MOVLW       3
	MOVWF       FARG_read_ds1307_address+0 
	CALL        _read_ds1307+0, 0
	MOVF        R0, 0 
	MOVWF       _dday+0 
	MOVLW       0
	MOVWF       _dday+1 
;rtc_source.c,192 :: 		day = read_ds1307(4);
	MOVLW       4
	MOVWF       FARG_read_ds1307_address+0 
	CALL        _read_ds1307+0, 0
	MOVF        R0, 0 
	MOVWF       _day+0 
	MOVLW       0
	MOVWF       _day+1 
;rtc_source.c,193 :: 		month = read_ds1307(5);
	MOVLW       5
	MOVWF       FARG_read_ds1307_address+0 
	CALL        _read_ds1307+0, 0
	MOVF        R0, 0 
	MOVWF       _month+0 
	MOVLW       0
	MOVWF       _month+1 
;rtc_source.c,194 :: 		year = read_ds1307(6);
	MOVLW       6
	MOVWF       FARG_read_ds1307_address+0 
	CALL        _read_ds1307+0, 0
	MOVF        R0, 0 
	MOVWF       _year+0 
	MOVLW       0
	MOVWF       _year+1 
;rtc_source.c,196 :: 		date[0] = BCD2UpperCh(day);
	MOVF        _day+0, 0 
	MOVWF       FARG_BCD2UpperCh_bcd+0 
	CALL        _BCD2UpperCh+0, 0
	MOVF        R0, 0 
	MOVWF       _date+0 
;rtc_source.c,197 :: 		date[1] = BCD2LowerCh(day);
	MOVF        _day+0, 0 
	MOVWF       FARG_BCD2LowerCh_bcd+0 
	CALL        _BCD2LowerCh+0, 0
	MOVF        R0, 0 
	MOVWF       _date+1 
;rtc_source.c,198 :: 		date[3] = BCD2UpperCh(month);
	MOVF        _month+0, 0 
	MOVWF       FARG_BCD2UpperCh_bcd+0 
	CALL        _BCD2UpperCh+0, 0
	MOVF        R0, 0 
	MOVWF       _date+3 
;rtc_source.c,199 :: 		date[4] = BCD2LowerCh(month);
	MOVF        _month+0, 0 
	MOVWF       FARG_BCD2LowerCh_bcd+0 
	CALL        _BCD2LowerCh+0, 0
	MOVF        R0, 0 
	MOVWF       _date+4 
;rtc_source.c,200 :: 		date[6] = BCD2UpperCh(year);
	MOVF        _year+0, 0 
	MOVWF       FARG_BCD2UpperCh_bcd+0 
	CALL        _BCD2UpperCh+0, 0
	MOVF        R0, 0 
	MOVWF       _date+6 
;rtc_source.c,201 :: 		date[7] = BCD2LowerCh(year);
	MOVF        _year+0, 0 
	MOVWF       FARG_BCD2LowerCh_bcd+0 
	CALL        _BCD2LowerCh+0, 0
	MOVF        R0, 0 
	MOVWF       _date+7 
;rtc_source.c,202 :: 		return date;
	MOVLW       _date+0
	MOVWF       R0 
	MOVLW       hi_addr(_date+0)
	MOVWF       R1 
;rtc_source.c,203 :: 		}
L_end_Display_date:
	RETURN      0
; end of _Display_date

_Mask:

;rtc_source.c,205 :: 		unsigned char Mask(char kp)
;rtc_source.c,207 :: 		switch (kp) {
	GOTO        L_Mask99
;rtc_source.c,209 :: 		case  1: kp = '1'; return kp; break; // 1        // Uncomment this block for keypad4x4
L_Mask101:
	MOVLW       49
	MOVWF       FARG_Mask_kp+0 
	MOVLW       49
	MOVWF       R0 
	GOTO        L_end_Mask
;rtc_source.c,210 :: 		case  2: kp = '4'; return kp; break; // 2
L_Mask102:
	MOVLW       52
	MOVWF       FARG_Mask_kp+0 
	MOVLW       52
	MOVWF       R0 
	GOTO        L_end_Mask
;rtc_source.c,211 :: 		case  3: kp = '7'; return kp; break; // 3
L_Mask103:
	MOVLW       55
	MOVWF       FARG_Mask_kp+0 
	MOVLW       55
	MOVWF       R0 
	GOTO        L_end_Mask
;rtc_source.c,212 :: 		case  4: kp = '*'; return kp; break; // A
L_Mask104:
	MOVLW       42
	MOVWF       FARG_Mask_kp+0 
	MOVLW       42
	MOVWF       R0 
	GOTO        L_end_Mask
;rtc_source.c,213 :: 		case  5: kp = '2'; return kp; break; // 4
L_Mask105:
	MOVLW       50
	MOVWF       FARG_Mask_kp+0 
	MOVLW       50
	MOVWF       R0 
	GOTO        L_end_Mask
;rtc_source.c,214 :: 		case  6: kp = '5'; return kp; break; // 5
L_Mask106:
	MOVLW       53
	MOVWF       FARG_Mask_kp+0 
	MOVLW       53
	MOVWF       R0 
	GOTO        L_end_Mask
;rtc_source.c,215 :: 		case  7: kp = '8'; return kp; break; // 6
L_Mask107:
	MOVLW       56
	MOVWF       FARG_Mask_kp+0 
	MOVLW       56
	MOVWF       R0 
	GOTO        L_end_Mask
;rtc_source.c,216 :: 		case  8: kp = '0'; return kp; break; // B
L_Mask108:
	MOVLW       48
	MOVWF       FARG_Mask_kp+0 
	MOVLW       48
	MOVWF       R0 
	GOTO        L_end_Mask
;rtc_source.c,217 :: 		case  9: kp = '3'; return kp; break; // 7
L_Mask109:
	MOVLW       51
	MOVWF       FARG_Mask_kp+0 
	MOVLW       51
	MOVWF       R0 
	GOTO        L_end_Mask
;rtc_source.c,218 :: 		case 10: kp = '6'; return kp; break; // 8
L_Mask110:
	MOVLW       54
	MOVWF       FARG_Mask_kp+0 
	MOVLW       54
	MOVWF       R0 
	GOTO        L_end_Mask
;rtc_source.c,219 :: 		case 11: kp = '9'; return kp; break; // 9
L_Mask111:
	MOVLW       57
	MOVWF       FARG_Mask_kp+0 
	MOVLW       57
	MOVWF       R0 
	GOTO        L_end_Mask
;rtc_source.c,220 :: 		case 12: kp = '#'; return kp; break; // C
L_Mask112:
	MOVLW       35
	MOVWF       FARG_Mask_kp+0 
	MOVLW       35
	MOVWF       R0 
	GOTO        L_end_Mask
;rtc_source.c,221 :: 		case 13: kp = 'A'; return kp; break; // *
L_Mask113:
	MOVLW       65
	MOVWF       FARG_Mask_kp+0 
	MOVLW       65
	MOVWF       R0 
	GOTO        L_end_Mask
;rtc_source.c,222 :: 		case 14: kp = 'B'; return kp; break; // 0
L_Mask114:
	MOVLW       66
	MOVWF       FARG_Mask_kp+0 
	MOVLW       66
	MOVWF       R0 
	GOTO        L_end_Mask
;rtc_source.c,223 :: 		case 15: kp = 'C'; return kp; break; // #
L_Mask115:
	MOVLW       67
	MOVWF       FARG_Mask_kp+0 
	MOVLW       67
	MOVWF       R0 
	GOTO        L_end_Mask
;rtc_source.c,224 :: 		case 16: kp = 'D'; return kp; break; // D
L_Mask116:
	MOVLW       68
	MOVWF       FARG_Mask_kp+0 
	MOVLW       68
	MOVWF       R0 
	GOTO        L_end_Mask
;rtc_source.c,226 :: 		}
L_Mask99:
	MOVF        FARG_Mask_kp+0, 0 
	XORLW       1
	BTFSC       STATUS+0, 2 
	GOTO        L_Mask101
	MOVF        FARG_Mask_kp+0, 0 
	XORLW       2
	BTFSC       STATUS+0, 2 
	GOTO        L_Mask102
	MOVF        FARG_Mask_kp+0, 0 
	XORLW       3
	BTFSC       STATUS+0, 2 
	GOTO        L_Mask103
	MOVF        FARG_Mask_kp+0, 0 
	XORLW       4
	BTFSC       STATUS+0, 2 
	GOTO        L_Mask104
	MOVF        FARG_Mask_kp+0, 0 
	XORLW       5
	BTFSC       STATUS+0, 2 
	GOTO        L_Mask105
	MOVF        FARG_Mask_kp+0, 0 
	XORLW       6
	BTFSC       STATUS+0, 2 
	GOTO        L_Mask106
	MOVF        FARG_Mask_kp+0, 0 
	XORLW       7
	BTFSC       STATUS+0, 2 
	GOTO        L_Mask107
	MOVF        FARG_Mask_kp+0, 0 
	XORLW       8
	BTFSC       STATUS+0, 2 
	GOTO        L_Mask108
	MOVF        FARG_Mask_kp+0, 0 
	XORLW       9
	BTFSC       STATUS+0, 2 
	GOTO        L_Mask109
	MOVF        FARG_Mask_kp+0, 0 
	XORLW       10
	BTFSC       STATUS+0, 2 
	GOTO        L_Mask110
	MOVF        FARG_Mask_kp+0, 0 
	XORLW       11
	BTFSC       STATUS+0, 2 
	GOTO        L_Mask111
	MOVF        FARG_Mask_kp+0, 0 
	XORLW       12
	BTFSC       STATUS+0, 2 
	GOTO        L_Mask112
	MOVF        FARG_Mask_kp+0, 0 
	XORLW       13
	BTFSC       STATUS+0, 2 
	GOTO        L_Mask113
	MOVF        FARG_Mask_kp+0, 0 
	XORLW       14
	BTFSC       STATUS+0, 2 
	GOTO        L_Mask114
	MOVF        FARG_Mask_kp+0, 0 
	XORLW       15
	BTFSC       STATUS+0, 2 
	GOTO        L_Mask115
	MOVF        FARG_Mask_kp+0, 0 
	XORLW       16
	BTFSC       STATUS+0, 2 
	GOTO        L_Mask116
;rtc_source.c,228 :: 		}
L_end_Mask:
	RETURN      0
; end of _Mask

_main:

;Test.c,4 :: 		void main() {
;Test.c,5 :: 		Initialization();
	CALL        _Initialization+0, 0
;Test.c,6 :: 		I2C1_Init(100000);
	MOVLW       20
	MOVWF       SSPADD+0 
	CALL        _I2C1_Init+0, 0
;Test.c,7 :: 		for(;;){
L_main117:
;Test.c,8 :: 		CheckCard();
	CALL        _CheckCard+0, 0
;Test.c,9 :: 		checkPassword();
	CALL        _checkPassword+0, 0
;Test.c,10 :: 		}
	GOTO        L_main117
;Test.c,11 :: 		}
L_end_main:
	GOTO        $+0
; end of _main
